target datalayout = "e-m:e-p270:32:32-p271:32:32-p272:64:64-i64:64-i128:128-f80:128-n8:16:32:64-S128"
target triple = "x86_64-pc-linux-gnu"

%"struct.absl::strings_internal::ParsedFloat" = type { i64, i32, i32, i32, ptr, ptr, ptr }

@.str = private unnamed_addr constant [3 x i8] c"nf\00", align 1
@.str.1 = private unnamed_addr constant [6 x i8] c"inity\00", align 1
@.str.2 = private unnamed_addr constant [3 x i8] c"an\00", align 1

; Function Attrs: mustprogress nounwind uwtable
define internal noundef zeroext i1 @_ZN4absl12_GLOBAL__N_19IsNanCharEc(i8 noundef signext %0) #3 {
  %2 = alloca i8, align 1
  store i8 %0, ptr %2, align 1, !tbaa !11
  %3 = load i8, ptr %2, align 1, !tbaa !11
  %4 = sext i8 %3 to i32
  %5 = icmp eq i32 %4, 95
  br i1 %5, label %32, label %6

6:                                                ; preds = %1
  %7 = load i8, ptr %2, align 1, !tbaa !11
  %8 = sext i8 %7 to i32
  %9 = icmp sge i32 %8, 48
  br i1 %9, label %10, label %14

10:                                               ; preds = %6
  %11 = load i8, ptr %2, align 1, !tbaa !11
  %12 = sext i8 %11 to i32
  %13 = icmp sle i32 %12, 57
  br i1 %13, label %32, label %14

14:                                               ; preds = %10, %6
  %15 = load i8, ptr %2, align 1, !tbaa !11
  %16 = sext i8 %15 to i32
  %17 = icmp sge i32 %16, 97
  br i1 %17, label %18, label %22

18:                                               ; preds = %14
  %19 = load i8, ptr %2, align 1, !tbaa !11
  %20 = sext i8 %19 to i32
  %21 = icmp sle i32 %20, 122
  br i1 %21, label %32, label %22

22:                                               ; preds = %18, %14
  %23 = load i8, ptr %2, align 1, !tbaa !11
  %24 = sext i8 %23 to i32
  %25 = icmp sge i32 %24, 65
  br i1 %25, label %26, label %30

26:                                               ; preds = %22
  %27 = load i8, ptr %2, align 1, !tbaa !11
  %28 = sext i8 %27 to i32
  %29 = icmp sle i32 %28, 90
  br label %30

30:                                               ; preds = %26, %22
  %31 = phi i1 [ false, %22 ], [ %29, %26 ]
  br label %32

32:                                               ; preds = %30, %18, %10, %1
  %33 = phi i1 [ true, %18 ], [ true, %10 ], [ true, %1 ], [ %31, %30 ]
  ret i1 %33
}

; Function Attrs: mustprogress uwtable
define internal noundef zeroext i1 @_ZN4absl12_GLOBAL__N_118ParseInfinityOrNanEPKcS2_PNS_16strings_internal11ParsedFloatE(ptr noundef %0, ptr noundef %1, ptr noundef %2) #0 {
  %4 = alloca i1, align 1
  %5 = alloca ptr, align 8
  %6 = alloca ptr, align 8
  %7 = alloca ptr, align 8
  %8 = alloca ptr, align 8
  store ptr %0, ptr %5, align 8, !tbaa !4
  store ptr %1, ptr %6, align 8, !tbaa !4
  store ptr %2, ptr %7, align 8, !tbaa !32
  %9 = load ptr, ptr %6, align 8, !tbaa !4
  %10 = load ptr, ptr %5, align 8, !tbaa !4
  %11 = ptrtoint ptr %9 to i64
  %12 = ptrtoint ptr %10 to i64
  %13 = sub i64 %11, %12
  %14 = icmp slt i64 %13, 3
  br i1 %14, label %15, label %16

15:                                               ; preds = %3
  store i1 false, ptr %4, align 1
  br label %114

16:                                               ; preds = %3
  %17 = load ptr, ptr %5, align 8, !tbaa !4
  %18 = load i8, ptr %17, align 1, !tbaa !11
  %19 = sext i8 %18 to i32
  switch i32 %19, label %113 [
    i32 105, label %20
    i32 73, label %20
    i32 110, label %51
    i32 78, label %51
  ]

20:                                               ; preds = %16, %16
  %21 = load ptr, ptr %5, align 8, !tbaa !4
  %22 = getelementptr inbounds i8, ptr %21, i64 1
  %23 = call noundef i32 @_ZN4absl16strings_internal10memcasecmpEPKcS2_m(ptr noundef %22, ptr noundef @.str, i64 noundef 2)
  %24 = icmp ne i32 %23, 0
  br i1 %24, label %25, label %26

25:                                               ; preds = %20
  store i1 false, ptr %4, align 1
  br label %114

26:                                               ; preds = %20
  %27 = load ptr, ptr %7, align 8, !tbaa !32
  %28 = getelementptr inbounds nuw %"struct.absl::strings_internal::ParsedFloat", ptr %27, i32 0, i32 3
  store i32 1, ptr %28, align 8, !tbaa !29
  %29 = load ptr, ptr %6, align 8, !tbaa !4
  %30 = load ptr, ptr %5, align 8, !tbaa !4
  %31 = ptrtoint ptr %29 to i64
  %32 = ptrtoint ptr %30 to i64
  %33 = sub i64 %31, %32
  %34 = icmp sge i64 %33, 8
  br i1 %34, label %35, label %45

35:                                               ; preds = %26
  %36 = load ptr, ptr %5, align 8, !tbaa !4
  %37 = getelementptr inbounds i8, ptr %36, i64 3
  %38 = call noundef i32 @_ZN4absl16strings_internal10memcasecmpEPKcS2_m(ptr noundef %37, ptr noundef @.str.1, i64 noundef 5)
  %39 = icmp eq i32 %38, 0
  br i1 %39, label %40, label %45

40:                                               ; preds = %35
  %41 = load ptr, ptr %5, align 8, !tbaa !4
  %42 = getelementptr inbounds i8, ptr %41, i64 8
  %43 = load ptr, ptr %7, align 8, !tbaa !32
  %44 = getelementptr inbounds nuw %"struct.absl::strings_internal::ParsedFloat", ptr %43, i32 0, i32 6
  store ptr %42, ptr %44, align 8, !tbaa !31
  br label %50

45:                                               ; preds = %35, %26
  %46 = load ptr, ptr %5, align 8, !tbaa !4
  %47 = getelementptr inbounds i8, ptr %46, i64 3
  %48 = load ptr, ptr %7, align 8, !tbaa !32
  %49 = getelementptr inbounds nuw %"struct.absl::strings_internal::ParsedFloat", ptr %48, i32 0, i32 6
  store ptr %47, ptr %49, align 8, !tbaa !31
  br label %50

50:                                               ; preds = %45, %40
  store i1 true, ptr %4, align 1
  br label %114

51:                                               ; preds = %16, %16
  %52 = load ptr, ptr %5, align 8, !tbaa !4
  %53 = getelementptr inbounds i8, ptr %52, i64 1
  %54 = call noundef i32 @_ZN4absl16strings_internal10memcasecmpEPKcS2_m(ptr noundef %53, ptr noundef @.str.2, i64 noundef 2)
  %55 = icmp ne i32 %54, 0
  br i1 %55, label %56, label %57

56:                                               ; preds = %51
  store i1 false, ptr %4, align 1
  br label %114

57:                                               ; preds = %51
  %58 = load ptr, ptr %7, align 8, !tbaa !32
  %59 = getelementptr inbounds nuw %"struct.absl::strings_internal::ParsedFloat", ptr %58, i32 0, i32 3
  store i32 2, ptr %59, align 8, !tbaa !29
  %60 = load ptr, ptr %5, align 8, !tbaa !4
  %61 = getelementptr inbounds i8, ptr %60, i64 3
  %62 = load ptr, ptr %7, align 8, !tbaa !32
  %63 = getelementptr inbounds nuw %"struct.absl::strings_internal::ParsedFloat", ptr %62, i32 0, i32 6
  store ptr %61, ptr %63, align 8, !tbaa !31
  %64 = load ptr, ptr %5, align 8, !tbaa !4
  %65 = getelementptr inbounds i8, ptr %64, i64 3
  store ptr %65, ptr %5, align 8, !tbaa !4
  %66 = load ptr, ptr %5, align 8, !tbaa !4
  %67 = load ptr, ptr %6, align 8, !tbaa !4
  %68 = icmp ult ptr %66, %67
  br i1 %68, label %69, label %112

69:                                               ; preds = %57
  %70 = load ptr, ptr %5, align 8, !tbaa !4
  %71 = load i8, ptr %70, align 1, !tbaa !11
  %72 = sext i8 %71 to i32
  %73 = icmp eq i32 %72, 40
  br i1 %73, label %74, label %112

74:                                               ; preds = %69
  call void @llvm.lifetime.start.p0(i64 8, ptr %8) #5
  %75 = load ptr, ptr %5, align 8, !tbaa !4
  %76 = getelementptr inbounds i8, ptr %75, i64 1
  store ptr %76, ptr %8, align 8, !tbaa !4
  br label %77

77:                                               ; preds = %87, %74
  %78 = load ptr, ptr %8, align 8, !tbaa !4
  %79 = load ptr, ptr %6, align 8, !tbaa !4
  %80 = icmp ult ptr %78, %79
  br i1 %80, label %81, label %85

81:                                               ; preds = %77
  %82 = load ptr, ptr %8, align 8, !tbaa !4
  %83 = load i8, ptr %82, align 1, !tbaa !11
  %84 = call noundef zeroext i1 @_ZN4absl12_GLOBAL__N_19IsNanCharEc(i8 noundef signext %83)
  br label %85

85:                                               ; preds = %81, %77
  %86 = phi i1 [ false, %77 ], [ %84, %81 ]
  br i1 %86, label %87, label %90

87:                                               ; preds = %85
  %88 = load ptr, ptr %8, align 8, !tbaa !4
  %89 = getelementptr inbounds nuw i8, ptr %88, i32 1
  store ptr %89, ptr %8, align 8, !tbaa !4
  br label %77, !llvm.loop !34

90:                                               ; preds = %85
  %91 = load ptr, ptr %8, align 8, !tbaa !4
  %92 = load ptr, ptr %6, align 8, !tbaa !4
  %93 = icmp ult ptr %91, %92
  br i1 %93, label %94, label %111

94:                                               ; preds = %90
  %95 = load ptr, ptr %8, align 8, !tbaa !4
  %96 = load i8, ptr %95, align 1, !tbaa !11
  %97 = sext i8 %96 to i32
  %98 = icmp eq i32 %97, 41
  br i1 %98, label %99, label %111

99:                                               ; preds = %94
  %100 = load ptr, ptr %5, align 8, !tbaa !4
  %101 = getelementptr inbounds i8, ptr %100, i64 1
  %102 = load ptr, ptr %7, align 8, !tbaa !32
  %103 = getelementptr inbounds nuw %"struct.absl::strings_internal::ParsedFloat", ptr %102, i32 0, i32 4
  store ptr %101, ptr %103, align 8, !tbaa !23
  %104 = load ptr, ptr %8, align 8, !tbaa !4
  %105 = load ptr, ptr %7, align 8, !tbaa !32
  %106 = getelementptr inbounds nuw %"struct.absl::strings_internal::ParsedFloat", ptr %105, i32 0, i32 5
  store ptr %104, ptr %106, align 8, !tbaa !26
  %107 = load ptr, ptr %8, align 8, !tbaa !4
  %108 = getelementptr inbounds i8, ptr %107, i64 1
  %109 = load ptr, ptr %7, align 8, !tbaa !32
  %110 = getelementptr inbounds nuw %"struct.absl::strings_internal::ParsedFloat", ptr %109, i32 0, i32 6
  store ptr %108, ptr %110, align 8, !tbaa !31
  br label %111

111:                                              ; preds = %99, %94, %90
  call void @llvm.lifetime.end.p0(i64 8, ptr %8) #5
  br label %112

112:                                              ; preds = %111, %69, %57
  store i1 true, ptr %4, align 1
  br label %114

113:                                              ; preds = %16
  store i1 false, ptr %4, align 1
  br label %114

114:                                              ; preds = %113, %112, %56, %50, %25, %15
  %115 = load i1, ptr %4, align 1
  ret i1 %115
}