; Function Attrs: mustprogress uwtable
define internal fastcc noundef zeroext i1 @_ZN4absl12_GLOBAL__N_118ParseInfinityOrNanEPKcS2_PNS_16strings_internal11ParsedFloatE(ptr noundef %0, ptr noundef %1, ptr noundef writeonly captures(none) %2) unnamed_addr #0 {
  %4 = ptrtoint ptr %0 to i64
  %5 = ptrtoint ptr %1 to i64
  %6 = sub i64 %5, %4
  %7 = icmp slt i64 %6, 3
  br i1 %7, label %.critedge40, label %8

8:                                                ; preds = %3
  %9 = load i8, ptr %0, align 1, !tbaa !4
  switch i8 %9, label %.critedge40 [
    i8 105, label %10
    i8 73, label %10
    i8 110, label %26
    i8 78, label %26
  ]

10:                                               ; preds = %8, %8
  %11 = getelementptr inbounds nuw i8, ptr %0, i64 1
  %12 = tail call noundef i32 @_ZN4absl16strings_internal10memcasecmpEPKcS2_m(ptr noundef nonnull %11, ptr noundef nonnull @.str, i64 noundef 2)
  %.not39 = icmp eq i32 %12, 0
  br i1 %.not39, label %13, label %.critedge40

13:                                               ; preds = %10
  %14 = getelementptr inbounds nuw i8, ptr %2, i64 16
  store i32 1, ptr %14, align 8, !tbaa !23
  %15 = icmp samesign ugt i64 %6, 7
  br i1 %15, label %16, label %23

16:                                               ; preds = %13
  %17 = getelementptr inbounds nuw i8, ptr %0, i64 3
  %18 = tail call noundef i32 @_ZN4absl16strings_internal10memcasecmpEPKcS2_m(ptr noundef nonnull %17, ptr noundef nonnull @.str.1, i64 noundef 5)
  %19 = icmp eq i32 %18, 0
  br i1 %19, label %20, label %23

20:                                               ; preds = %16
  %21 = getelementptr inbounds nuw i8, ptr %0, i64 8
  %22 = getelementptr inbounds nuw i8, ptr %2, i64 40
  store ptr %21, ptr %22, align 8, !tbaa !25
  br label %.critedge40

23:                                               ; preds = %16, %13
  %24 = getelementptr inbounds nuw i8, ptr %0, i64 3
  %25 = getelementptr inbounds nuw i8, ptr %2, i64 40
  store ptr %24, ptr %25, align 8, !tbaa !25
  br label %.critedge40

26:                                               ; preds = %8, %8
  %27 = getelementptr inbounds nuw i8, ptr %0, i64 1
  %28 = tail call noundef i32 @_ZN4absl16strings_internal10memcasecmpEPKcS2_m(ptr noundef nonnull %27, ptr noundef nonnull @.str.2, i64 noundef 2)
  %.not = icmp eq i32 %28, 0
  br i1 %.not, label %29, label %.critedge40

29:                                               ; preds = %26
  %30 = getelementptr inbounds nuw i8, ptr %2, i64 16
  store i32 2, ptr %30, align 8, !tbaa !23
  %31 = getelementptr inbounds nuw i8, ptr %0, i64 3
  %32 = getelementptr inbounds nuw i8, ptr %2, i64 40
  store ptr %31, ptr %32, align 8, !tbaa !25
  %33 = icmp ult ptr %31, %1
  br i1 %33, label %34, label %.critedge40

34:                                               ; preds = %29
  %35 = load i8, ptr %31, align 1, !tbaa !4
  %36 = icmp eq i8 %35, 40
  br i1 %36, label %37, label %.critedge40

37:                                               ; preds = %34
  %38 = getelementptr inbounds nuw i8, ptr %0, i64 4
  %39 = icmp ult ptr %38, %1
  br i1 %39, label %.lr.ph, label %.critedge40

.lr.ph:                                           ; preds = %37, %_ZN4absl12_GLOBAL__N_19IsNanCharEc.exit.thread
  %.043 = phi ptr [ %46, %_ZN4absl12_GLOBAL__N_19IsNanCharEc.exit.thread ], [ %38, %37 ]
  %40 = load i8, ptr %.043, align 1, !tbaa !4
  %41 = icmp eq i8 %40, 95
  %42 = add i8 %40, -48
  %or.cond.i = icmp ult i8 %42, 10
  %or.cond12.i = or i1 %41, %or.cond.i
  %43 = and i8 %40, -33
  %44 = add i8 %43, -65
  %45 = icmp ult i8 %44, 26
  %or.cond = or i1 %45, %or.cond12.i
  br i1 %or.cond, label %_ZN4absl12_GLOBAL__N_19IsNanCharEc.exit.thread, label %.critedge

_ZN4absl12_GLOBAL__N_19IsNanCharEc.exit.thread:   ; preds = %.lr.ph
  %46 = getelementptr inbounds nuw i8, ptr %.043, i64 1
  %exitcond.not = icmp eq ptr %46, %1
  br i1 %exitcond.not, label %.critedge40, label %.lr.ph, !llvm.loop !26

.critedge:                                        ; preds = %.lr.ph
  %47 = icmp eq i8 %40, 41
  br i1 %47, label %48, label %.critedge40

48:                                               ; preds = %.critedge
  %49 = getelementptr inbounds nuw i8, ptr %2, i64 24
  store ptr %38, ptr %49, align 8, !tbaa !13
  %50 = getelementptr inbounds nuw i8, ptr %2, i64 32
  store ptr %.043, ptr %50, align 8, !tbaa !20
  %51 = getelementptr inbounds nuw i8, ptr %.043, i64 1
  store ptr %51, ptr %32, align 8, !tbaa !25
  br label %.critedge40

.critedge40:                                      ; preds = %_ZN4absl12_GLOBAL__N_19IsNanCharEc.exit.thread, %37, %8, %29, %34, %48, %.critedge, %26, %20, %23, %10, %3
  %.035 = phi i1 [ false, %3 ], [ false, %10 ], [ true, %23 ], [ true, %20 ], [ false, %26 ], [ true, %.critedge ], [ true, %48 ], [ true, %34 ], [ true, %29 ], [ false, %8 ], [ true, %37 ], [ true, %_ZN4absl12_GLOBAL__N_19IsNanCharEc.exit.thread ]
  ret i1 %.035
}